; ModuleID = '51/390.c'
source_filename = "51/390.c"
target datalayout = "e-m:e-p270:32:32-p271:32:32-p272:64:64-i64:64-f80:128-n8:16:32:64-S128"
target triple = "x86_64-pc-linux-gnu"

@.str = private unnamed_addr constant [4 x i8] c"%d\0A\00", align 1
@.str.1 = private unnamed_addr constant [3 x i8] c"NO\00", align 1
@.str.2 = private unnamed_addr constant [4 x i8] c"%s\0A\00", align 1

; Function Attrs: noinline nounwind uwtable
define dso_local i32 @main() #0 {
  %1 = alloca i32, align 4
  %2 = alloca [2000 x i8], align 16
  %3 = alloca [2000 x [100 x i8]], align 16
  %4 = alloca i32, align 4
  %5 = alloca i32, align 4
  %6 = alloca i32, align 4
  %7 = alloca i32, align 4
  %8 = alloca i32, align 4
  %9 = alloca i32, align 4
  %10 = alloca [2000 x i32], align 16
  %11 = alloca [2000 x i32], align 16
  store i32 0, i32* %1, align 4
  %12 = bitcast [2000 x i32]* %10 to i8*
  call void @llvm.memset.p0i8.i64(i8* align 16 %12, i8 0, i64 8000, i1 false)
  %13 = bitcast [2000 x i32]* %11 to i8*
  call void @llvm.memset.p0i8.i64(i8* align 16 %13, i8 0, i64 8000, i1 false)
  %14 = call i32 (i8*, ...) @__isoc99_scanf(i8* getelementptr inbounds ([4 x i8], [4 x i8]* @.str, i64 0, i64 0), i32* %5)
  %15 = getelementptr inbounds [2000 x i8], [2000 x i8]* %2, i64 0, i64 0
  %16 = call i32 (i8*, ...) bitcast (i32 (...)* @gets to i32 (i8*, ...)*)(i8* %15)
  %17 = getelementptr inbounds [2000 x i8], [2000 x i8]* %2, i64 0, i64 0
  %18 = call i64 @strlen(i8* %17) #4
  %19 = trunc i64 %18 to i32
  store i32 %19, i32* %7, align 4
  store i32 0, i32* %8, align 4
  br label %20

20:                                               ; preds = %49, %0
  %21 = load i32, i32* %8, align 4
  %22 = load i32, i32* %7, align 4
  %23 = load i32, i32* %5, align 4
  %24 = sub nsw i32 %22, %23
  %25 = icmp sle i32 %21, %24
  br i1 %25, label %26, label %52

26:                                               ; preds = %20
  store i32 0, i32* %6, align 4
  br label %27

27:                                               ; preds = %45, %26
  %28 = load i32, i32* %6, align 4
  %29 = load i32, i32* %5, align 4
  %30 = sub nsw i32 %29, 1
  %31 = icmp sle i32 %28, %30
  br i1 %31, label %32, label %48

32:                                               ; preds = %27
  %33 = load i32, i32* %8, align 4
  %34 = load i32, i32* %6, align 4
  %35 = add nsw i32 %33, %34
  %36 = sext i32 %35 to i64
  %37 = getelementptr inbounds [2000 x i8], [2000 x i8]* %2, i64 0, i64 %36
  %38 = load i8, i8* %37, align 1
  %39 = load i32, i32* %8, align 4
  %40 = sext i32 %39 to i64
  %41 = getelementptr inbounds [2000 x [100 x i8]], [2000 x [100 x i8]]* %3, i64 0, i64 %40
  %42 = load i32, i32* %6, align 4
  %43 = sext i32 %42 to i64
  %44 = getelementptr inbounds [100 x i8], [100 x i8]* %41, i64 0, i64 %43
  store i8 %38, i8* %44, align 1
  br label %45

45:                                               ; preds = %32
  %46 = load i32, i32* %6, align 4
  %47 = add nsw i32 %46, 1
  store i32 %47, i32* %6, align 4
  br label %27

48:                                               ; preds = %27
  br label %49

49:                                               ; preds = %48
  %50 = load i32, i32* %8, align 4
  %51 = add nsw i32 %50, 1
  store i32 %51, i32* %8, align 4
  br label %20

52:                                               ; preds = %20
  store i32 0, i32* %8, align 4
  br label %53

53:                                               ; preds = %103, %52
  %54 = load i32, i32* %8, align 4
  %55 = load i32, i32* %7, align 4
  %56 = load i32, i32* %5, align 4
  %57 = sub nsw i32 %55, %56
  %58 = sub nsw i32 %57, 1
  %59 = icmp sle i32 %54, %58
  br i1 %59, label %60, label %106

60:                                               ; preds = %53
  %61 = load i32, i32* %8, align 4
  %62 = sext i32 %61 to i64
  %63 = getelementptr inbounds [2000 x i32], [2000 x i32]* %10, i64 0, i64 %62
  store i32 0, i32* %63, align 4
  %64 = load i32, i32* %8, align 4
  %65 = add nsw i32 %64, 1
  store i32 %65, i32* %6, align 4
  br label %66

66:                                               ; preds = %99, %60
  %67 = load i32, i32* %6, align 4
  %68 = load i32, i32* %7, align 4
  %69 = load i32, i32* %5, align 4
  %70 = sub nsw i32 %68, %69
  %71 = icmp sle i32 %67, %70
  br i1 %71, label %72, label %102

72:                                               ; preds = %66
  %73 = load i32, i32* %8, align 4
  %74 = sext i32 %73 to i64
  %75 = getelementptr inbounds [2000 x [100 x i8]], [2000 x [100 x i8]]* %3, i64 0, i64 %74
  %76 = getelementptr inbounds [100 x i8], [100 x i8]* %75, i64 0, i64 0
  %77 = load i32, i32* %6, align 4
  %78 = sext i32 %77 to i64
  %79 = getelementptr inbounds [2000 x [100 x i8]], [2000 x [100 x i8]]* %3, i64 0, i64 %78
  %80 = getelementptr inbounds [100 x i8], [100 x i8]* %79, i64 0, i64 0
  %81 = call i32 @strcmp(i8* %76, i8* %80) #4
  %82 = icmp eq i32 %81, 0
  br i1 %82, label %83, label %98

83:                                               ; preds = %72
  %84 = load i32, i32* %6, align 4
  %85 = sext i32 %84 to i64
  %86 = getelementptr inbounds [2000 x i32], [2000 x i32]* %10, i64 0, i64 %85
  %87 = load i32, i32* %86, align 4
  %88 = icmp eq i32 %87, 0
  br i1 %88, label %89, label %98

89:                                               ; preds = %83
  %90 = load i32, i32* %8, align 4
  %91 = sext i32 %90 to i64
  %92 = getelementptr inbounds [2000 x i32], [2000 x i32]* %11, i64 0, i64 %91
  %93 = load i32, i32* %92, align 4
  %94 = add nsw i32 %93, 1
  store i32 %94, i32* %92, align 4
  %95 = load i32, i32* %6, align 4
  %96 = sext i32 %95 to i64
  %97 = getelementptr inbounds [2000 x i32], [2000 x i32]* %10, i64 0, i64 %96
  store i32 1, i32* %97, align 4
  br label %98

98:                                               ; preds = %89, %83, %72
  br label %99

99:                                               ; preds = %98
  %100 = load i32, i32* %6, align 4
  %101 = add nsw i32 %100, 1
  store i32 %101, i32* %6, align 4
  br label %66

102:                                              ; preds = %66
  br label %103

103:                                              ; preds = %102
  %104 = load i32, i32* %8, align 4
  %105 = add nsw i32 %104, 1
  store i32 %105, i32* %8, align 4
  br label %53

106:                                              ; preds = %53
  store i32 0, i32* %9, align 4
  store i32 0, i32* %8, align 4
  br label %107

107:                                              ; preds = %126, %106
  %108 = load i32, i32* %8, align 4
  %109 = load i32, i32* %7, align 4
  %110 = load i32, i32* %5, align 4
  %111 = sub nsw i32 %109, %110
  %112 = icmp sle i32 %108, %111
  br i1 %112, label %113, label %129

113:                                              ; preds = %107
  %114 = load i32, i32* %9, align 4
  %115 = load i32, i32* %8, align 4
  %116 = sext i32 %115 to i64
  %117 = getelementptr inbounds [2000 x i32], [2000 x i32]* %11, i64 0, i64 %116
  %118 = load i32, i32* %117, align 4
  %119 = icmp slt i32 %114, %118
  br i1 %119, label %120, label %125

120:                                              ; preds = %113
  %121 = load i32, i32* %8, align 4
  %122 = sext i32 %121 to i64
  %123 = getelementptr inbounds [2000 x i32], [2000 x i32]* %11, i64 0, i64 %122
  %124 = load i32, i32* %123, align 4
  store i32 %124, i32* %9, align 4
  br label %125

125:                                              ; preds = %120, %113
  br label %126

126:                                              ; preds = %125
  %127 = load i32, i32* %8, align 4
  %128 = add nsw i32 %127, 1
  store i32 %128, i32* %8, align 4
  br label %107

129:                                              ; preds = %107
  %130 = load i32, i32* %9, align 4
  %131 = add nsw i32 %130, 1
  %132 = icmp sle i32 %131, 1
  br i1 %132, label %133, label %135

133:                                              ; preds = %129
  %134 = call i32 (i8*, ...) @printf(i8* getelementptr inbounds ([3 x i8], [3 x i8]* @.str.1, i64 0, i64 0))
  br label %163

135:                                              ; preds = %129
  %136 = load i32, i32* %9, align 4
  %137 = add nsw i32 %136, 1
  %138 = call i32 (i8*, ...) @printf(i8* getelementptr inbounds ([4 x i8], [4 x i8]* @.str, i64 0, i64 0), i32 %137)
  store i32 0, i32* %8, align 4
  br label %139

139:                                              ; preds = %159, %135
  %140 = load i32, i32* %8, align 4
  %141 = load i32, i32* %7, align 4
  %142 = load i32, i32* %5, align 4
  %143 = sub nsw i32 %141, %142
  %144 = icmp sle i32 %140, %143
  br i1 %144, label %145, label %162

145:                                              ; preds = %139
  %146 = load i32, i32* %8, align 4
  %147 = sext i32 %146 to i64
  %148 = getelementptr inbounds [2000 x i32], [2000 x i32]* %11, i64 0, i64 %147
  %149 = load i32, i32* %148, align 4
  %150 = load i32, i32* %9, align 4
  %151 = icmp eq i32 %149, %150
  br i1 %151, label %152, label %158

152:                                              ; preds = %145
  %153 = load i32, i32* %8, align 4
  %154 = sext i32 %153 to i64
  %155 = getelementptr inbounds [2000 x [100 x i8]], [2000 x [100 x i8]]* %3, i64 0, i64 %154
  %156 = getelementptr inbounds [100 x i8], [100 x i8]* %155, i64 0, i64 0
  %157 = call i32 (i8*, ...) @printf(i8* getelementptr inbounds ([4 x i8], [4 x i8]* @.str.2, i64 0, i64 0), i8* %156)
  br label %158

158:                                              ; preds = %152, %145
  br label %159

159:                                              ; preds = %158
  %160 = load i32, i32* %8, align 4
  %161 = add nsw i32 %160, 1
  store i32 %161, i32* %8, align 4
  br label %139

162:                                              ; preds = %139
  br label %163

163:                                              ; preds = %162, %133
  %164 = load i32, i32* %1, align 4
  ret i32 %164
}

; Function Attrs: argmemonly nounwind willreturn
declare void @llvm.memset.p0i8.i64(i8* nocapture writeonly, i8, i64, i1 immarg) #1

declare dso_local i32 @__isoc99_scanf(i8*, ...) #2

declare dso_local i32 @gets(...) #2

; Function Attrs: nounwind readonly
declare dso_local i64 @strlen(i8*) #3

; Function Attrs: nounwind readonly
declare dso_local i32 @strcmp(i8*, i8*) #3

declare dso_local i32 @printf(i8*, ...) #2


!llvm.module.flags = !{!0}
!llvm.ident = !{!1}

!0 = !{i32 1, !"wchar_size", i32 4}
!1 = !{!"clang version 10.0.0-4ubuntu1 "}
